target datalayout = "e-m:e-p270:32:32-p271:32:32-p272:64:64-i64:64-i128:128-f80:128-n8:16:32:64-S128"
target triple = "x86_64-pc-linux-gnu"

%struct.H5E_stack_t = type { i64, [32 x %struct.H5E_entry_t], %struct.H5E_auto_op_t, ptr, i32 }
%struct.H5E_entry_t = type { i8, %struct.H5E_error2_t }
%struct.H5E_error2_t = type { i64, i64, i64, i32, ptr, ptr, ptr }
%struct.H5E_auto_op_t = type { i32, i8, ptr, ptr, ptr, ptr }
%struct.H5CX_node_t = type { %struct.H5CX_t, ptr }
%struct.H5CX_t = type { i64, ptr, i64, ptr, i64, ptr, i64, ptr, i64, ptr, i64, ptr, i64, i32, i64, i8, ptr, i8, ptr, i8, i32, i8, [3 x double], i8, i64, i8, i32, i8, %struct.H5Z_cb_t, i8, ptr, i8, %struct.H5T_vlen_alloc_info_t, i8, %struct.H5T_conv_cb_t, i8, i32, i8, i8, i8, i32, i8, i8, i32, i8, i8, i32, i8, i32, i8, i64, i8, i8, i8, i8, i8, ptr, i8, ptr, i8, i32, i8, i32, i8, %struct.H5VL_connector_prop_t, i8, ptr, i8 }
%struct.H5Z_cb_t = type { ptr, ptr }
%struct.H5T_vlen_alloc_info_t = type { ptr, ptr, ptr, ptr }
%struct.H5T_conv_cb_t = type { ptr, ptr }
%struct.H5VL_connector_prop_t = type { ptr, ptr }

@H5E_init_g = global i8 0, align 1
@H5_libinit_g = external global i8, align 1
@H5_libterm_g = external global i8, align 1
@.str = private unnamed_addr constant [97 x i8] c"generated/home/dtcxzyw/WorkSpace/Projects/compilers/llvm-opt-benchmark/bench/hdf5/hdf5/src/H5E.c\00", align 1
@H5E_FUNC_g = external global i64, align 8
@H5E_CANTINIT_g = external global i64, align 8
@.str.1 = private unnamed_addr constant [30 x i8] c"library initialization failed\00", align 1
@.str.2 = private unnamed_addr constant [32 x i8] c"interface initialization failed\00", align 1
@H5E_CANTSET_g = external global i64, align 8
@.str.3 = private unnamed_addr constant [22 x i8] c"can't set API context\00", align 1
@H5E_ARGS_g = external global i64, align 8
@H5E_BADVALUE_g = external global i64, align 8
@H5E_ERROR_g = external global i64, align 8
@H5E_BADTYPE_g = external global i64, align 8
@H5E_CANTGET_g = external global i64, align 8
@H5E_stack_g = external global [1 x %struct.H5E_stack_t], align 16
@.str.24 = private unnamed_addr constant [30 x i8] c"can't get current error stack\00", align 1
@.str.25 = private unnamed_addr constant [22 x i8] c"not an error stack ID\00", align 1
@__func__.H5Eis_paused = private unnamed_addr constant [13 x i8] c"H5Eis_paused\00", align 1
@.str.45 = private unnamed_addr constant [28 x i8] c"is_paused parameter is NULL\00", align 1

; Function Attrs: nounwind uwtable
define i32 @H5Eis_paused(i64 noundef %0, ptr noundef %1) #0 {
  %3 = alloca i64, align 8
  %4 = alloca ptr, align 8
  %5 = alloca ptr, align 8
  %6 = alloca i32, align 4
  %7 = alloca %struct.H5CX_node_t, align 8
  %8 = alloca i8, align 1
  %9 = alloca i8, align 1
  store i64 %0, ptr %3, align 8, !tbaa !8
  store ptr %1, ptr %4, align 8, !tbaa !39
  call void @llvm.lifetime.start.p0(i64 8, ptr %5) #7
  call void @llvm.lifetime.start.p0(i64 4, ptr %6) #7
  store i32 0, ptr %6, align 4, !tbaa !16
  call void @llvm.lifetime.start.p0(i64 480, ptr %7) #7
  call void @llvm.memset.p0.i64(ptr align 8 %7, i8 0, i64 480, i1 false)
  call void @llvm.lifetime.start.p0(i64 1, ptr %8) #7
  store i8 0, ptr %8, align 1, !tbaa !10
  call void @llvm.lifetime.start.p0(i64 1, ptr %9) #7
  store i8 0, ptr %9, align 1, !tbaa !10
  br label %10

10:                                               ; preds = %2
  %11 = load i8, ptr @H5_libinit_g, align 1, !tbaa !10, !range !12, !noundef !13
  %12 = trunc i8 %11 to i1
  br i1 %12, label %17, label %13

13:                                               ; preds = %10
  %14 = load i8, ptr @H5_libterm_g, align 1, !tbaa !10, !range !12, !noundef !13
  %15 = trunc i8 %14 to i1
  %16 = xor i1 %15, true
  br label %17

17:                                               ; preds = %13, %10
  %18 = phi i1 [ false, %10 ], [ %16, %13 ]
  %19 = xor i1 %18, true
  %20 = xor i1 %19, true
  %21 = zext i1 %20 to i32
  %22 = sext i32 %21 to i64
  %23 = call i64 @llvm.expect.i64(i64 %22, i64 0)
  %24 = icmp ne i64 %23, 0
  br i1 %24, label %25, label %54

25:                                               ; preds = %17
  %26 = call i32 @H5_init_library()
  %27 = icmp slt i32 %26, 0
  %28 = xor i1 %27, true
  %29 = xor i1 %28, true
  %30 = zext i1 %29 to i32
  %31 = sext i32 %30 to i64
  %32 = call i64 @llvm.expect.i64(i64 %31, i64 0)
  %33 = icmp ne i64 %32, 0
  br i1 %33, label %34, label %53

34:                                               ; preds = %25
  br label %35

35:                                               ; preds = %34
  br label %36

36:                                               ; preds = %35
  br label %37

37:                                               ; preds = %36
  %38 = load i64, ptr @H5E_FUNC_g, align 8, !tbaa !8
  %39 = load i64, ptr @H5E_CANTINIT_g, align 8, !tbaa !8
  %40 = call i32 (ptr, ptr, i32, i64, i64, ptr, ...) @H5E_printf_stack(ptr noundef @.str, ptr noundef @__func__.H5Eis_paused, i32 noundef 912, i64 noundef %38, i64 noundef %39, ptr noundef @.str.1)
  br label %41

41:                                               ; preds = %37
  br label %42

42:                                               ; preds = %41
  store i8 1, ptr %9, align 1, !tbaa !10
  %43 = load i8, ptr %9, align 1, !tbaa !10, !range !12, !noundef !13
  %44 = trunc i8 %43 to i1
  %45 = zext i1 %44 to i8
  store i8 %45, ptr %9, align 1, !tbaa !10
  br label %46

46:                                               ; preds = %42
  br label %47

47:                                               ; preds = %46
  br label %48

48:                                               ; preds = %47
  store i32 -1, ptr %6, align 4, !tbaa !16
  br label %204

49:                                               ; No predecessors!
  br label %50

50:                                               ; preds = %49
  br label %51

51:                                               ; preds = %50
  br label %52

52:                                               ; preds = %51
  br label %53

53:                                               ; preds = %52, %25
  br label %54

54:                                               ; preds = %53, %17
  %55 = load i8, ptr @H5E_init_g, align 1, !tbaa !10, !range !12, !noundef !13
  %56 = trunc i8 %55 to i1
  br i1 %56, label %61, label %57

57:                                               ; preds = %54
  %58 = load i8, ptr @H5_libterm_g, align 1, !tbaa !10, !range !12, !noundef !13
  %59 = trunc i8 %58 to i1
  %60 = xor i1 %59, true
  br label %61

61:                                               ; preds = %57, %54
  %62 = phi i1 [ false, %54 ], [ %60, %57 ]
  %63 = xor i1 %62, true
  %64 = xor i1 %63, true
  %65 = zext i1 %64 to i32
  %66 = sext i32 %65 to i64
  %67 = call i64 @llvm.expect.i64(i64 %66, i64 0)
  %68 = icmp ne i64 %67, 0
  br i1 %68, label %69, label %92

69:                                               ; preds = %61
  store i8 1, ptr @H5E_init_g, align 1, !tbaa !10
  %70 = call i32 @H5E__init_package()
  %71 = icmp slt i32 %70, 0
  br i1 %71, label %72, label %91

72:                                               ; preds = %69
  store i8 0, ptr @H5E_init_g, align 1, !tbaa !10
  br label %73

73:                                               ; preds = %72
  br label %74

74:                                               ; preds = %73
  br label %75

75:                                               ; preds = %74
  %76 = load i64, ptr @H5E_FUNC_g, align 8, !tbaa !8
  %77 = load i64, ptr @H5E_CANTINIT_g, align 8, !tbaa !8
  %78 = call i32 (ptr, ptr, i32, i64, i64, ptr, ...) @H5E_printf_stack(ptr noundef @.str, ptr noundef @__func__.H5Eis_paused, i32 noundef 912, i64 noundef %76, i64 noundef %77, ptr noundef @.str.2)
  br label %79

79:                                               ; preds = %75
  br label %80

80:                                               ; preds = %79
  store i8 1, ptr %9, align 1, !tbaa !10
  %81 = load i8, ptr %9, align 1, !tbaa !10, !range !12, !noundef !13
  %82 = trunc i8 %81 to i1
  %83 = zext i1 %82 to i8
  store i8 %83, ptr %9, align 1, !tbaa !10
  br label %84

84:                                               ; preds = %80
  br label %85

85:                                               ; preds = %84
  br label %86

86:                                               ; preds = %85
  store i32 -1, ptr %6, align 4, !tbaa !16
  br label %204

87:                                               ; No predecessors!
  br label %88

88:                                               ; preds = %87
  br label %89

89:                                               ; preds = %88
  br label %90

90:                                               ; preds = %89
  br label %91

91:                                               ; preds = %90, %69
  br label %92

92:                                               ; preds = %91, %61
  br label %93

93:                                               ; preds = %92
  br label %94

94:                                               ; preds = %93
  br label %95

95:                                               ; preds = %94
  %96 = call i32 @H5CX_push(ptr noundef %7)
  %97 = icmp slt i32 %96, 0
  %98 = xor i1 %97, true
  %99 = xor i1 %98, true
  %100 = zext i1 %99 to i32
  %101 = sext i32 %100 to i64
  %102 = call i64 @llvm.expect.i64(i64 %101, i64 0)
  %103 = icmp ne i64 %102, 0
  br i1 %103, label %104, label %123

104:                                              ; preds = %95
  br label %105

105:                                              ; preds = %104
  br label %106

106:                                              ; preds = %105
  br label %107

107:                                              ; preds = %106
  %108 = load i64, ptr @H5E_FUNC_g, align 8, !tbaa !8
  %109 = load i64, ptr @H5E_CANTSET_g, align 8, !tbaa !8
  %110 = call i32 (ptr, ptr, i32, i64, i64, ptr, ...) @H5E_printf_stack(ptr noundef @.str, ptr noundef @__func__.H5Eis_paused, i32 noundef 912, i64 noundef %108, i64 noundef %109, ptr noundef @.str.3)
  br label %111

111:                                              ; preds = %107
  br label %112

112:                                              ; preds = %111
  store i8 1, ptr %9, align 1, !tbaa !10
  %113 = load i8, ptr %9, align 1, !tbaa !10, !range !12, !noundef !13
  %114 = trunc i8 %113 to i1
  %115 = zext i1 %114 to i8
  store i8 %115, ptr %9, align 1, !tbaa !10
  br label %116

116:                                              ; preds = %112
  br label %117

117:                                              ; preds = %116
  br label %118

118:                                              ; preds = %117
  store i32 -1, ptr %6, align 4, !tbaa !16
  br label %204

119:                                              ; No predecessors!
  br label %120

120:                                              ; preds = %119
  br label %121

121:                                              ; preds = %120
  br label %122

122:                                              ; preds = %121
  br label %124

123:                                              ; preds = %95
  store i8 1, ptr %8, align 1, !tbaa !10
  br label %124

124:                                              ; preds = %123, %122
  br label %125

125:                                              ; preds = %124
  br label %126

126:                                              ; preds = %125
  %127 = load i64, ptr %3, align 8, !tbaa !8
  %128 = icmp eq i64 %127, 0
  br i1 %128, label %129, label %150

129:                                              ; preds = %126
  store ptr @H5E_stack_g, ptr %5, align 8, !tbaa !21
  br i1 false, label %130, label %149

130:                                              ; preds = %129
  br label %131

131:                                              ; preds = %130
  br label %132

132:                                              ; preds = %131
  br label %133

133:                                              ; preds = %132
  %134 = load i64, ptr @H5E_ERROR_g, align 8, !tbaa !8
  %135 = load i64, ptr @H5E_CANTGET_g, align 8, !tbaa !8
  %136 = call i32 (ptr, ptr, i32, i64, i64, ptr, ...) @H5E_printf_stack(ptr noundef @.str, ptr noundef @__func__.H5Eis_paused, i32 noundef 917, i64 noundef %134, i64 noundef %135, ptr noundef @.str.24)
  br label %137

137:                                              ; preds = %133
  br label %138

138:                                              ; preds = %137
  store i8 1, ptr %9, align 1, !tbaa !10
  %139 = load i8, ptr %9, align 1, !tbaa !10, !range !12, !noundef !13
  %140 = trunc i8 %139 to i1
  %141 = zext i1 %140 to i8
  store i8 %141, ptr %9, align 1, !tbaa !10
  br label %142

142:                                              ; preds = %138
  br label %143

143:                                              ; preds = %142
  br label %144

144:                                              ; preds = %143
  store i32 -1, ptr %6, align 4, !tbaa !16
  br label %204

145:                                              ; No predecessors!
  br label %146

146:                                              ; preds = %145
  br label %147

147:                                              ; preds = %146
  br label %148

148:                                              ; preds = %147
  br label %149

149:                                              ; preds = %148, %129
  br label %175

150:                                              ; preds = %126
  %151 = call i32 @H5E_clear_stack()
  %152 = load i64, ptr %3, align 8, !tbaa !8
  %153 = call ptr @H5I_object_verify(i64 noundef %152, i32 noundef 14)
  store ptr %153, ptr %5, align 8, !tbaa !21
  %154 = icmp eq ptr null, %153
  br i1 %154, label %155, label %174

155:                                              ; preds = %150
  br label %156

156:                                              ; preds = %155
  br label %157

157:                                              ; preds = %156
  br label %158

158:                                              ; preds = %157
  %159 = load i64, ptr @H5E_ARGS_g, align 8, !tbaa !8
  %160 = load i64, ptr @H5E_BADTYPE_g, align 8, !tbaa !8
  %161 = call i32 (ptr, ptr, i32, i64, i64, ptr, ...) @H5E_printf_stack(ptr noundef @.str, ptr noundef @__func__.H5Eis_paused, i32 noundef 925, i64 noundef %159, i64 noundef %160, ptr noundef @.str.25)
  br label %162

162:                                              ; preds = %158
  br label %163

163:                                              ; preds = %162
  store i8 1, ptr %9, align 1, !tbaa !10
  %164 = load i8, ptr %9, align 1, !tbaa !10, !range !12, !noundef !13
  %165 = trunc i8 %164 to i1
  %166 = zext i1 %165 to i8
  store i8 %166, ptr %9, align 1, !tbaa !10
  br label %167

167:                                              ; preds = %163
  br label %168

168:                                              ; preds = %167
  br label %169

169:                                              ; preds = %168
  store i32 -1, ptr %6, align 4, !tbaa !16
  br label %204

170:                                              ; No predecessors!
  br label %171

171:                                              ; preds = %170
  br label %172

172:                                              ; preds = %171
  br label %173

173:                                              ; preds = %172
  br label %174

174:                                              ; preds = %173, %150
  br label %175

175:                                              ; preds = %174, %149
  %176 = load ptr, ptr %4, align 8, !tbaa !39
  %177 = icmp eq ptr null, %176
  br i1 %177, label %178, label %197

178:                                              ; preds = %175
  br label %179

179:                                              ; preds = %178
  br label %180

180:                                              ; preds = %179
  br label %181

181:                                              ; preds = %180
  %182 = load i64, ptr @H5E_ARGS_g, align 8, !tbaa !8
  %183 = load i64, ptr @H5E_BADVALUE_g, align 8, !tbaa !8
  %184 = call i32 (ptr, ptr, i32, i64, i64, ptr, ...) @H5E_printf_stack(ptr noundef @.str, ptr noundef @__func__.H5Eis_paused, i32 noundef 930, i64 noundef %182, i64 noundef %183, ptr noundef @.str.45)
  br label %185

185:                                              ; preds = %181
  br label %186

186:                                              ; preds = %185
  store i8 1, ptr %9, align 1, !tbaa !10
  %187 = load i8, ptr %9, align 1, !tbaa !10, !range !12, !noundef !13
  %188 = trunc i8 %187 to i1
  %189 = zext i1 %188 to i8
  store i8 %189, ptr %9, align 1, !tbaa !10
  br label %190

190:                                              ; preds = %186
  br label %191

191:                                              ; preds = %190
  br label %192

192:                                              ; preds = %191
  store i32 -1, ptr %6, align 4, !tbaa !16
  br label %204

193:                                              ; No predecessors!
  br label %194

194:                                              ; preds = %193
  br label %195

195:                                              ; preds = %194
  br label %196

196:                                              ; preds = %195
  br label %197

197:                                              ; preds = %196, %175
  %198 = load ptr, ptr %5, align 8, !tbaa !21
  %199 = getelementptr inbounds nuw %struct.H5E_stack_t, ptr %198, i32 0, i32 4
  %200 = load i32, ptr %199, align 8, !tbaa !26
  %201 = icmp ugt i32 %200, 0
  %202 = load ptr, ptr %4, align 8, !tbaa !39
  %203 = zext i1 %201 to i8
  store i8 %203, ptr %202, align 1, !tbaa !10
  br label %204

204:                                              ; preds = %197, %192, %169, %144, %118, %86, %48
  %205 = load i8, ptr %8, align 1, !tbaa !10, !range !12, !noundef !13
  %206 = trunc i8 %205 to i1
  %207 = xor i1 %206, true
  %208 = xor i1 %207, true
  %209 = zext i1 %208 to i32
  %210 = sext i32 %209 to i64
  %211 = call i64 @llvm.expect.i64(i64 %210, i64 1)
  %212 = icmp ne i64 %211, 0
  br i1 %212, label %213, label %215

213:                                              ; preds = %204
  %214 = call i32 @H5CX_pop(i1 noundef zeroext true)
  store i8 0, ptr %8, align 1, !tbaa !10
  br label %215

215:                                              ; preds = %213, %204
  %216 = load i8, ptr %9, align 1, !tbaa !10, !range !12, !noundef !13
  %217 = trunc i8 %216 to i1
  %218 = xor i1 %217, true
  %219 = xor i1 %218, true
  %220 = zext i1 %219 to i32
  %221 = sext i32 %220 to i64
  %222 = call i64 @llvm.expect.i64(i64 %221, i64 0)
  %223 = icmp ne i64 %222, 0
  br i1 %223, label %224, label %226

224:                                              ; preds = %215
  %225 = call i32 @H5E_dump_api_stack()
  br label %226

226:                                              ; preds = %224, %215
  %227 = load i32, ptr %6, align 4, !tbaa !16
  call void @llvm.lifetime.end.p0(i64 1, ptr %9) #7
  call void @llvm.lifetime.end.p0(i64 1, ptr %8) #7
  call void @llvm.lifetime.end.p0(i64 480, ptr %7) #7
  call void @llvm.lifetime.end.p0(i64 4, ptr %6) #7
  call void @llvm.lifetime.end.p0(i64 8, ptr %5) #7
  ret i32 %227
}